target datalayout = "e-m:e-p270:32:32-p271:32:32-p272:64:64-i64:64-i128:128-f80:128-n8:16:32:64-S128"
target triple = "x86_64-pc-linux-gnu"

%struct.t_psdata = type { ptr, %"class.std::vector", float, i32 }
%"class.std::vector" = type { %"struct.std::_Vector_base" }
%"struct.std::_Vector_base" = type { %"struct.std::_Vector_base<t_rgb, std::allocator<t_rgb>>::_Vector_impl" }
%"struct.std::_Vector_base<t_rgb, std::allocator<t_rgb>>::_Vector_impl" = type { %"struct.std::_Vector_base<t_rgb, std::allocator<t_rgb>>::_Vector_impl_data" }
%"struct.std::_Vector_base<t_rgb, std::allocator<t_rgb>>::_Vector_impl_data" = type { ptr, ptr, ptr }

@.str.35 = private unnamed_addr constant [9 x i8] c"%g %g l\0A\00", align 1
@.str.37 = private unnamed_addr constant [9 x i8] c"%g %g m\0A\00", align 1
@.str.39 = private unnamed_addr constant [3 x i8] c"s\0A\00", align 1

; Function Attrs: mustprogress nounwind uwtable
define void @_Z9ps_linetoP8t_psdataff(ptr noundef %0, float noundef %1, float noundef %2) #3 {
  %4 = alloca ptr, align 8
  %5 = alloca float, align 4
  %6 = alloca float, align 4
  store ptr %0, ptr %4, align 8, !tbaa !26
  store float %1, ptr %5, align 4, !tbaa !15
  store float %2, ptr %6, align 4, !tbaa !15
  %7 = load ptr, ptr %4, align 8, !tbaa !26
  %8 = getelementptr inbounds nuw %struct.t_psdata, ptr %7, i32 0, i32 0
  %9 = load ptr, ptr %8, align 8, !tbaa !17
  %10 = load float, ptr %5, align 4, !tbaa !15
  %11 = fpext float %10 to double
  %12 = load float, ptr %6, align 4, !tbaa !15
  %13 = fpext float %12 to double
  %14 = call i32 (ptr, ptr, ...) @fprintf(ptr noundef %9, ptr noundef @.str.35, double noundef %11, double noundef %13) #14
  ret void
}

; Function Attrs: mustprogress nounwind uwtable
define void @_Z9ps_movetoP8t_psdataff(ptr noundef %0, float noundef %1, float noundef %2) #3 {
  %4 = alloca ptr, align 8
  %5 = alloca float, align 4
  %6 = alloca float, align 4
  store ptr %0, ptr %4, align 8, !tbaa !26
  store float %1, ptr %5, align 4, !tbaa !15
  store float %2, ptr %6, align 4, !tbaa !15
  %7 = load ptr, ptr %4, align 8, !tbaa !26
  %8 = getelementptr inbounds nuw %struct.t_psdata, ptr %7, i32 0, i32 0
  %9 = load ptr, ptr %8, align 8, !tbaa !17
  %10 = load float, ptr %5, align 4, !tbaa !15
  %11 = fpext float %10 to double
  %12 = load float, ptr %6, align 4, !tbaa !15
  %13 = fpext float %12 to double
  %14 = call i32 (ptr, ptr, ...) @fprintf(ptr noundef %9, ptr noundef @.str.37, double noundef %11, double noundef %13) #14
  ret void
}

; Function Attrs: mustprogress nounwind uwtable
define void @_Z7ps_lineP8t_psdataffff(ptr noundef %0, float noundef %1, float noundef %2, float noundef %3, float noundef %4) #3 {
  %6 = alloca ptr, align 8
  %7 = alloca float, align 4
  %8 = alloca float, align 4
  %9 = alloca float, align 4
  %10 = alloca float, align 4
  store ptr %0, ptr %6, align 8, !tbaa !26
  store float %1, ptr %7, align 4, !tbaa !15
  store float %2, ptr %8, align 4, !tbaa !15
  store float %3, ptr %9, align 4, !tbaa !15
  store float %4, ptr %10, align 4, !tbaa !15
  %11 = load ptr, ptr %6, align 8, !tbaa !26
  %12 = load float, ptr %7, align 4, !tbaa !15
  %13 = load float, ptr %8, align 4, !tbaa !15
  call void @_Z9ps_movetoP8t_psdataff(ptr noundef %11, float noundef %12, float noundef %13)
  %14 = load ptr, ptr %6, align 8, !tbaa !26
  %15 = load float, ptr %9, align 4, !tbaa !15
  %16 = load float, ptr %10, align 4, !tbaa !15
  call void @_Z9ps_linetoP8t_psdataff(ptr noundef %14, float noundef %15, float noundef %16)
  %17 = load ptr, ptr %6, align 8, !tbaa !26
  %18 = getelementptr inbounds nuw %struct.t_psdata, ptr %17, i32 0, i32 0
  %19 = load ptr, ptr %18, align 8, !tbaa !17
  %20 = call i32 (ptr, ptr, ...) @fprintf(ptr noundef %19, ptr noundef @.str.39) #14
  ret void
}