; Function Attrs: mustprogress nofree nounwind uwtable
define void @_Z7ps_lineP8t_psdataffff(ptr noundef readonly captures(none) %0, float noundef %1, float noundef %2, float noundef %3, float noundef %4) local_unnamed_addr #8 {
  %6 = load ptr, ptr %0, align 8, !tbaa !9
  %7 = fpext float %1 to double
  %8 = fpext float %2 to double
  %9 = tail call i32 (ptr, ptr, ...) @fprintf(ptr noundef %6, ptr noundef nonnull @.str.37, double noundef %7, double noundef %8) #18
  %10 = load ptr, ptr %0, align 8, !tbaa !9
  %11 = fpext float %3 to double
  %12 = fpext float %4 to double
  %13 = tail call i32 (ptr, ptr, ...) @fprintf(ptr noundef %10, ptr noundef nonnull @.str.35, double noundef %11, double noundef %12) #18
  %14 = load ptr, ptr %0, align 8, !tbaa !9
  %15 = tail call i64 @fwrite(ptr nonnull @.str.39, i64 2, i64 1, ptr %14)
  ret void
}